(dp1
S'fb:film.film'
p2
I16
sS'fb:music.genre'
p3
I395
sS'fb:base.tagit.man_made_thing'
p4
I225
sS'fb:user.doconnor.pets.topic'
p5
I319
sS'fb:award.hall_of_fame_inductee'
p6
I216
sS'fb:user.narphorium.people.nndb_person'
p7
I75
sS'fb:music.multipart_release'
p8
I211
sS'fb:base.academia.topic'
p9
I380
sS'fb:base.wfilmbase.topic'
p10
I262
sS'fb:base.cars_refactor.model'
p11
I236
sS'fb:book.magazine'
p12
I315
sS'fb:book.book_character'
p13
I190
sS'fb:freebase.type_profile'
p14
I204
sS'fb:base.webvideo.topic'
p15
I391
sS'fb:base.prison.topic'
p16
I415
sS'fb:base.aareas.schema.earth.citytown'
p17
I193
sS'fb:internet.website_owner'
p18
I306
sS'fb:base.ontologies.ontology_instance'
p19
I117
sS'fb:travel.accommodation'
p20
I384
sS'fb:influence.influence_node'
p21
I44
sS'fb:base.type_ontology.abstract'
p22
I4
sS'fb:base.americancomedy.topic'
p23
I256
sS'fb:location.hud_foreclosure_area'
p24
I57
sS'fb:user.alexander.philosophy.philosopher'
p25
I357
sS'fb:base.consumermedical.medical_term'
p26
I218
sS'fb:food.food'
p27
I197
sS'fb:fictional_universe.person_in_fiction'
p28
I165
sS'fb:education.field_of_study'
p29
I271
sS'fb:sports.boxer'
p30
I189
sS'fb:base.newyorkcity.topic'
p31
I367
sS'fb:boats.ship'
p32
I259
sS'fb:base.adultentertainment.adult_entertainer'
p33
I314
sS'fb:user.robert.us_congress.topic'
p34
I389
sS'fb:base.horseracing.topic'
p35
I212
sS'fb:base.worldwartwo.topic'
p36
I268
sS'fb:base.blackhistorymonth.topic'
p37
I180
sS'fb:music.release_track'
p38
I15
sS'fb:user.alexander.misc.murdered_person'
p39
I255
sS'fb:base.hindisoundtracks.topic'
p40
I455
sS'fb:business.business_location'
p41
I270
sS'fb:medicine.risk_factor'
p42
I477
sS'fb:royalty.monarch'
p43
I253
sS'fb:base.type_ontology.animate'
p44
I6
sS'fb:book.periodical'
p45
I133
sS'fb:music.producer'
p46
I104
sS'fb:aviation.aircraft_owner'
p47
I361
sS'fb:dining.restaurant'
p48
I407
sS'fb:periodicals.newspaper_circulation_area'
p49
I140
sS'fb:medicine.condition_prevention_factors'
p50
I456
sS'fb:base.allthingsnewyork.topic'
p51
I115
sS'fb:sports.drafted_athlete'
p52
I290
sS'fb:base.fictionaluniverse.topic'
p53
I497
sS'fb:food.dish'
p54
I355
sS'fb:base.cannes.topic'
p55
I202
sS'fb:book.literary_series'
p56
I481
sS'fb:biology.animal_breed'
p57
I459
sS'fb:base.zxspectrum.zx_spectrum_program'
p58
I448
sS'fb:military.battle'
p59
I171
sS'fb:sports.sports_official'
p60
I353
sS'fb:film.cinematographer'
p61
I93
sS'fb:law.inventor'
p62
I235
sS'fb:media_common.quotation'
p63
I272
sS'fb:music.release'
p64
I20
sS'fb:astronomy.star'
p65
I258
sS'fb:medicine.disease'
p66
I185
sS'fb:film.film_screening_venue'
p67
I431
sS'fb:broadcast.tv_station'
p68
I474
sS'fb:media_common.adapted_work'
p69
I148
sS'fb:music.soundtrack'
p70
I98
sS'fb:award.award_nominated_work'
p71
I45
sS'fb:theater.theater'
p72
I486
sS'fb:theater.theater_actor'
p73
I126
sS'fb:book.written_work'
p74
I28
sS'fb:astronomy.celestial_object'
p75
I58
sS'fb:base.scotland.topic'
p76
I487
sS'fb:type.content'
p77
I17
sS'fb:base.aareas.schema.au.local_government_area'
p78
I493
sS'fb:people.deceased_person'
p79
I8
sS'fb:broadcast.broadcast'
p80
I146
sS'fb:sports.sports_team'
p81
I167
sS'fb:fictional_universe.fictional_character_creator'
p82
I254
sS'fb:olympics.olympic_athlete'
p83
I96
sS'fb:dining.chef'
p84
I452
sS'fb:biology.deceased_organism'
p85
I398
sS'fb:architecture.museum'
p86
I241
sS'fb:base.argumentmaps.idea'
p87
I441
sS'fb:government.government_agency'
p88
I308
sS'fb:base.litcentral.topic'
p89
I416
sS'fb:base.schemastaging.context_name'
p90
I137
sS'fb:media_common.creative_work'
p91
I22
sS'fb:visual_art.visual_artist'
p92
I82
sS'fb:business.industry'
p93
I293
sS'fb:base.lgbtfilms.topic'
p94
I265
sS'fb:biology.animal'
p95
I374
sS'fb:broadcast.artist'
p96
I108
sS'fb:base.crime.lawyer'
p97
I168
sS'fb:base.popstra.celebrity'
p98
I150
sS'fb:user.maxim75.default_domain.dbpedia_import'
p99
I103
sS'fb:base.foodrecipes.topic'
p100
I339
sS'fb:sports.sports_award_winner'
p101
I401
sS'fb:film.editor'
p102
I92
sS'fb:film.film_location'
p103
I260
sS'fb:music.lyricist'
p104
I87
sS'fb:base.argumentmaps.innovator'
p105
I417
sS'fb:military.military_commander'
p106
I440
sS'fb:tv.tv_personality'
p107
I97
sS'fb:organization.organization'
p108
I32
sS'fb:music.songwriter'
p109
I242
sS'fb:base.skosbase.topic'
p110
I162
sS'fb:film.film_set_designer'
p111
I228
sS'fb:cvg.cvg_designer'
p112
I465
sS'fb:visual_art.art_subject'
p113
I307
sS'fb:people.family_member'
p114
I145
sS'fb:projects.project_participant'
p115
I282
sS'fb:music.artist'
p116
I23
sS'fb:medicine.symptom'
p117
I403
sS'fb:cricket.cricket_bowler'
p118
I333
sS'fb:music.concert_film'
p119
I352
sS'fb:user.alexbl.honorary_title.titled_person'
p120
I301
sS'fb:american_football.football_coach'
p121
I317
sS'fb:geography.body_of_water'
p122
I107
sS'fb:cvg.cvg_publisher'
p123
I388
sS'fb:american_football.football_player'
p124
I76
sS'fb:user.micahsaul.advertising.advertiser'
p125
I489
sS'fb:base.aareas.schema.administrative_area'
p126
I78
sS'fb:education.educational_institution_campus'
p127
I77
sS'fb:base.moscratch.topic'
p128
I488
sS'fb:base.gayporn.topic'
p129
I377
sS'fb:base.movies1001.topic'
p130
I385
sS'fb:tennis.tennis_tournament_champion'
p131
I408
sS'fb:location.australian_local_government_area'
p132
I490
sS'fb:cricket.cricket_player'
p133
I179
sS'fb:base.uncommon.topic'
p134
I291
sS'fb:music.composer'
p135
I49
sS'fb:business.consumer_product'
p136
I31
sS'fb:religion.deity'
p137
I485
sS'fb:music.conductor'
p138
I288
sS'fb:tv.tv_soundtrack'
p139
I330
sS'fb:user.alust.default_domain.processed_with_review_queue'
p140
I42
sS'fb:base.computerscience.topic'
p141
I413
sS'fb:base.toronto.topic'
p142
I313
sS'fb:theater.musical_soundtrack'
p143
I454
sS'fb:sports.pro_athlete'
p144
I14
sS'fb:base.todolists.topic'
p145
I161
sS'fb:geography.lake'
p146
I178
sS'fb:cvg.cvg_developer'
p147
I305
sS'fb:location.us_county'
p148
I187
sS'fb:base.vermont.topic'
p149
I360
sS'fb:base.tagit.concept'
p150
I109
sS'fb:base.animal_synopses.animal_synopsis'
p151
I445
sS'fb:book.journal'
p152
I400
sS'fb:music.record_label'
p153
I239
sS'fb:royalty.chivalric_order_member'
p154
I136
sS'fb:cvg.musical_game_song'
p155
I494
sS'fb:comic_books.comic_book_series'
p156
I473
sS'fb:architecture.venue'
p157
I163
sS'fb:base.tagasauris.organic_object'
p158
I213
sS'fb:base.aareas.schema.us.county'
p159
I188
sS'fb:biology.organism_classification'
p160
I118
sS'fb:base.sundance.topic'
p161
I419
sS'fb:cvg.video_game_soundtrack'
p162
I378
sS'fb:event.disaster'
p163
I427
sS'fb:book.book'
p164
I29
sS'fb:book.publishing_company'
p165
I390
sS'fb:theater.theatrical_lyricist'
p166
I480
sS'fb:base.foodrecipes.recipe_ingredient'
p167
I372
sS'fb:education.educational_institution'
p168
I54
sS'fb:people.measured_person'
p169
I12
sS'fb:biology.pedigreed_animal'
p170
I220
sS'fb:military.military_unit'
p171
I244
sS'fb:base.animemanga.topic'
p172
I402
sS'fb:base.rosenbaum.topic'
p173
I396
sS'fb:user.micahsaul.advertising.advertised_thing'
p174
I351
sS'fb:base.biblioness.bibs_topic'
p175
I350
sS'fb:time.recurring_event'
p176
I286
sS'fb:base.reviews.review'
p177
I457
sS'fb:tv.tv_character'
p178
I125
sS'fb:computer.software_developer'
p179
I492
sS'fb:organization.membership_organization'
p180
I491
sS'fb:base.duiattorneys.topic'
p181
I484
sS'fb:base.holocaust.topic'
p182
I469
sS'fb:user.tsegaran.random.taxonomy_subject'
p183
I302
sS'fb:film.film_production_designer'
p184
I130
sS'fb:base.biblioness.bibs_location'
p185
I261
sS'fb:base.tagit.place'
p186
I329
sS'fb:base.activism.topic'
p187
I237
sS'fb:award.award_winning_work'
p188
I55
sS'fb:law.judge'
p189
I334
sS'fb:religion.place_of_worship'
p190
I217
sS'fb:business.defunct_company'
p191
I251
sS'fb:base.petbreeds.topic'
p192
I471
sS'fb:book.book_subject'
p193
I80
sS'fb:theater.theater_director'
p194
I311
sS'fb:media_common.media_genre'
p195
I327
sS'fb:basketball.basketball_player'
p196
I110
sS'fb:medicine.drug'
p197
I156
sS'fb:medicine.icd_9_cm_classification'
p198
I336
sS'fb:base.ottawa.topic'
p199
I392
sS'fb:book.translated_work'
p200
I304
sS'fb:base.engineering.engineering_person'
p201
I434
sS'fb:tv.tv_writer'
p202
I124
sS'fb:music.engineer'
p203
I273
sS'fb:geography.island'
p204
I246
sS'fb:architecture.house'
p205
I447
sS'fb:basketball.basketball_coach'
p206
I346
sS'fb:medicine.manufactured_drug_form'
p207
I113
sS'fb:people.person'
p208
I7
sS'fb:protected_sites.listed_site'
p209
I90
sS'fb:base.americancivilwar.military_unit'
p210
I383
sS'fb:music.composition'
p211
I48
sS'fb:award.award_nominee'
p212
I27
sS'fb:base.morelaw.canadian_lawyer'
p213
I463
sS'fb:base.schemastaging.theater_production_extra'
p214
I425
sS'fb:business.brand'
p215
I269
sS'fb:base.ttiff.topic'
p216
I364
sS'fb:base.prison.prisoner'
p217
I472
sS'fb:base.karlovyvaryinternationalfilmfestival.topic'
p218
I194
sS'fb:base.ukparliament.topic'
p219
I453
sS'fb:base.argumentmaps.topic'
p220
I300
sS'fb:award.competitor'
p221
I279
sS'fb:education.university'
p222
I86
sS'fb:visual_art.artwork'
p223
I119
sS'fb:base.yalebase.person'
p224
I284
sS'fb:base.usnris.nris_listing'
p225
I101
sS'fb:base.marchmadness.topic'
p226
I451
sS'fb:aviation.airport'
p227
I160
sS'fb:architecture.architectural_structure_owner'
p228
I442
sS'fb:base.academyawards.topic'
p229
I338
sS'fb:biology.organism'
p230
I195
sS'fb:symbols.name_source'
p231
I157
sS'fb:sports.sports_facility'
p232
I277
sS'fb:transportation.bridge'
p233
I257
sS'fb:base.rosetta.languoid'
p234
I149
sS'fb:base.moscratch.shce021709'
p235
I495
sS'fb:base.x2010fifaworldcupsouthafrica.topic'
p236
I414
sS'fb:sports.sports_team_location'
p237
I295
sS'fb:film.film_costumer_designer'
p238
I177
sS'fb:tv.tv_program_guest'
p239
I198
sS'fb:organization.organization_sector'
p240
I341
sS'fb:film.film_casting_director'
p241
I275
sS'fb:sports.golfer'
p242
I233
sS'fb:base.skosbase.skos_concept'
p243
I276
sS'fb:aviation.aircraft_model'
p244
I373
sS'fb:base.setrakian.topic'
p245
I412
sS'fb:geography.geographical_feature'
p246
I70
sS'fb:law.invention'
p247
I393
sS'fb:user.benvvalk.default_domain.moby_output_descriptor'
p248
I418
sS'fb:tv.tv_actor'
p249
I38
sS'fb:medicine.notable_person_with_medical_condition'
p250
I287
sS'fb:freebase.user_profile'
p251
I370
sS'fb:music.musical_group'
p252
I52
sS'fb:film.person_or_entity_appearing_in_film'
p253
I50
sS'fb:comic_books.comic_book_character'
p254
I181
sS'fb:medicine.hospital'
p255
I475
sS'fb:base.nobelprizes.nobel_prize_winner'
p256
I432
sS'fb:computer.software'
p257
I186
sS'fb:base.popstra.sww_base'
p258
I142
sS'fb:fictional_universe.fictional_setting'
p259
I387
sS'fb:base.kwebbase.kwtopic'
p260
I285
sS'fb:base.culturalevent.event'
p261
I116
sS'fb:base.type_ontology.agent'
p262
I2
sS'fb:fictional_universe.work_of_fiction'
p263
I88
sS'fb:book.published_work'
p264
I192
sS'fb:military.military_person'
p265
I67
sS'fb:freebase.equivalent_topic'
p266
I422
sS'fb:media_common.quotation_subject'
p267
I375
sS'fb:book.newspaper'
p268
I176
sS'fb:base.wikipedia_infobox.video_game'
p269
I95
sS'fb:soccer.football_team_manager'
p270
I274
sS'fb:interests.collectable_item'
p271
I482
sS'fb:base.thoroughbredracing.thoroughbred_racehorse'
p272
I232
sS'fb:book.short_story'
p273
I312
sS'fb:tv.tv_series_episode'
p274
I59
sS'fb:geography.river'
p275
I129
sS'fb:education.academic'
p276
I105
sS'fb:tv.tv_program_creator'
p277
I144
sS'fb:base.jewlib.topic'
p278
I323
sS'fb:music.single'
p279
I26
sS'fb:film.writer'
p280
I41
sS'fb:user.sandos.common_sense.pet'
p281
I439
sS'fb:education.school'
p282
I111
sS'fb:base.crime.convicted_criminal'
p283
I294
sS'fb:location.capital_of_administrative_division'
p284
I151
sS'fb:music.featured_artist'
p285
I182
sS'fb:location.statistical_region'
p286
I21
sS'fb:media_common.cataloged_instance'
p287
I39
sS'fb:exhibitions.exhibition_subject'
p288
I424
sS'fb:broadcast.content'
p289
I234
sS'fb:base.summermovies2009.topic'
p290
I411
sS'fb:theater.theater_character'
p291
I359
sS'fb:base.fight.sports_official'
p292
I344
sS'fb:music.album'
p293
I10
sS'fb:base.wfilmbase.film'
p294
I263
sS'fb:government.governmental_jurisdiction'
p295
I219
sS'fb:base.zxspectrum.topic'
p296
I325
sS'fb:military.military_conflict'
p297
I120
sS'fb:internet.website'
p298
I322
sS'fb:film.production_company'
p299
I498
sS'fb:award.competition'
p300
I326
sS'fb:sports.school_sports_team'
p301
I460
sS'fb:base.schemastaging.person_extra'
p302
I206
sS'fb:base.sfiff.topic'
p303
I164
sS'fb:base.schemastaging.drug_extra'
p304
I354
sS'fb:location.hud_county_place'
p305
I66
sS'fb:business.business_operation'
p306
I62
sS'fb:language.human_language'
p307
I143
sS'fb:business.issuer'
p308
I174
sS'fb:government.political_party'
p309
I247
sS'fb:architecture.structure'
p310
I53
sS'fb:organization.organization_member'
p311
I196
sS'fb:type.user'
p312
I371
sS'fb:business.issue'
p313
I208
sS'fb:base.kwebbase.kwconnection'
p314
I281
sS'fb:film.film_character'
p315
I63
sS'fb:type.type'
p316
I205
sS'fb:soccer.football_player'
p317
I35
sS'fb:architecture.architect'
p318
I154
sS'fb:transportation.road'
p319
I222
sS'fb:medicine.physician'
p320
I243
sS'fb:user.sandos.common_sense.common_sense_organism'
p321
I438
sS'fb:film.film_subject'
p322
I191
sS'fb:sports.sports_championship_event'
p323
I406
sS'fb:type.namespace'
p324
I297
sS'fb:base.nobelprizes.topic'
p325
I342
sS'fb:music.release_component'
p326
I127
sS'fb:projects.project_focus'
p327
I61
sS'fb:base.crime.topic'
p328
I139
sS'fb:film.music_contributor'
p329
I99
sS'fb:business.employer'
p330
I36
sS'fb:music.guitarist'
p331
I173
sS'fb:base.fblinux.topic'
p332
I496
sS'fb:base.schemastaging.tv_actor_extra'
p333
I343
sS'fb:tennis.tennis_player'
p334
I199
sS'fb:business.product_category'
p335
I345
sS'fb:base.skosbase.vocabulary_equivalent_topic'
p336
I152
sS'fb:theater.theater_producer'
p337
I362
sS'fb:base.pornactresses.topic'
p338
I468
sS'fb:government.u_s_congressperson'
p339
I122
sS'fb:cvg.game_version'
p340
I89
sS'fb:location.dated_location'
p341
I19
sS'fb:film.actor'
p342
I11
sS'fb:fictional_universe.fictional_character'
p343
I46
sS'fb:base.americancivilwar.topic'
p344
I223
sS'fb:martial_arts.martial_artist'
p345
I159
sS'fb:wine.wine'
p346
I252
sS'fb:user.zsi_editorial.editorial.base_topic'
p347
I278
sS'fb:base.popstra.topic'
p348
I141
sS'fb:base.schemastaging.non_profit_extra'
p349
I250
sS'fb:book.book_edition'
p350
I51
sS'fb:religion.religious_leader'
p351
I356
sS'fb:base.consumermedical.disease'
p352
I221
sS'fb:symbols.namesake'
p353
I132
sS'fb:user.skud.names.topic'
p354
I324
sS'fb:user.micahsaul.advertising.ad_campaign'
p355
I470
sS'fb:location.australian_suburb'
p356
I464
sS'fb:people.ethnicity'
p357
I292
sS'fb:base.filmnoir.topic'
p358
I349
sS'fb:tv.tv_producer'
p359
I112
sS'fb:base.schemastaging.aircraft_model_extra'
p360
I436
sS'fb:base.fight.topic'
p361
I310
sS'fb:base.washingtondc.topic'
p362
I368
sS'fb:base.x2010fifaworldcupsouthafrica.world_cup_participant'
p363
I426
sS'fb:award.award_category'
p364
I331
sS'fb:base.vancouver.topic'
p365
I320
sS'fb:base.thoroughbredracing.topic'
p366
I203
sS'fb:biology.gene'
p367
I369
sS'fb:base.aareas.schema.england.civil_parish'
p368
I267
sS'fb:base.schemastaging.government_position_held_extra'
p369
I435
sS'fb:award.ranked_item'
p370
I85
sS'fb:base.type_ontology.physically_instantiable'
p371
I3
sS'fb:film.producer'
p372
I43
sS'fb:common.topic'
p373
I0
sS'fb:geography.mountain'
p374
I135
sS'fb:theater.theater_production'
p375
I332
sS'fb:people.cause_of_death'
p376
I443
sS'fb:base.ireland.topic'
p377
I478
sS'fb:base.horseracing.racehorse'
p378
I238
sS'fb:protected_sites.protected_site'
p379
I231
sS'fb:automotive.model'
p380
I227
sS'fb:music.recording'
p381
I13
sS'fb:film.director'
p382
I40
sS'fb:organization.organization_founder'
p383
I91
sS'fb:soccer.football_team'
p384
I335
sS'fb:base.australianpolitics.topic'
p385
I467
sS'fb:astronomy.star_system_body'
p386
I69
sS'fb:architecture.building'
p387
I73
sS'fb:astronomy.astronomical_discovery'
p388
I64
sS'fb:base.saints.topic'
p389
I429
sS'fb:opera.opera'
p390
I420
sS'fb:medicine.drug_formulation'
p391
I81
sS'fb:base.fashionmodels.fashion_model'
p392
I423
sS'fb:base.adultentertainment.topic'
p393
I266
sS'fb:travel.travel_destination'
p394
I172
sS'fb:architecture.skyscraper'
p395
I309
sS'fb:base.yalebase.topic'
p396
I264
sS'fb:book.author'
p397
I25
sS'fb:computer.computer_scientist'
p398
I499
sS'fb:biology.owned_animal'
p399
I224
sS'fb:base.americancomedy.comedian'
p400
I316
sS'fb:base.myspace.myspace_user'
p401
I106
sS'fb:film.film_story_contributor'
p402
I79
sS'fb:sports.sports_team_coach'
p403
I404
sS'fb:astronomy.asteroid'
p404
I65
sS'fb:base.argumentmaps.original_idea'
p405
I405
sS'fb:music.writer'
p406
I47
sS'fb:base.plopquiz.topic'
p407
I379
sS'fb:medicine.drug_ingredient'
p408
I229
sS'fb:media_common.adaptation'
p409
I102
sS'fb:astronomy.orbital_relationship'
p410
I60
sS'fb:user.doconnor.pets.pet'
p411
I446
sS'fb:baseball.baseball_player'
p412
I71
sS'fb:base.atheism.atheist'
p413
I394
sS'fb:book.periodical_publisher'
p414
I366
sS'fb:base.berlininternationalfilmfestival.topic'
p415
I134
sS'fb:base.ovguide.topic'
p416
I184
sS'fb:government.government_office_or_title'
p417
I483
sS'fb:base.schemastaging.athlete_extra'
p418
I94
sS'fb:medicine.medical_treatment'
p419
I215
sS'fb:base.objectionablecontent.flagged_content'
p420
I348
sS'fb:tv.tv_director'
p421
I170
sS'fb:base.schemastaging.food_extra'
p422
I458
sS'fb:base.schemastaging.topic'
p423
I131
sS'fb:tv.tv_network'
p424
I462
sS'fb:business.consumer_company'
p425
I397
sS'fb:base.argentina.topic'
p426
I430
sS'fb:base.gayporn.gay_porn'
p427
I381
sS'fb:people.place_of_interment'
p428
I382
sS'fb:metropolitan_transit.transit_line'
p429
I358
sS'fb:travel.tourist_attraction'
p430
I114
sS'fb:base.schemastaging.contact_product'
p431
I461
sS'fb:base.performer.topic'
p432
I433
sS'fb:user.zsi_editorial.editorial.topic'
p433
I245
sS'fb:theater.play'
p434
I248
sS'fb:organization.non_profit_organization'
p435
I175
sS'fb:award.award_winner'
p436
I30
sS'fb:internet.social_network_user'
p437
I56
sS'fb:celebrities.celebrity'
p438
I226
sS'fb:user.tsegaran.random.topic'
p439
I476
sS'fb:time.event'
p440
I83
sS'fb:base.saints.saint'
p441
I328
sS'fb:astronomy.astronomer'
p442
I410
sS'fb:location.census_designated_place'
p443
I158
sS'fb:location.citytown'
p444
I24
sS'fb:base.schemastaging.organization_extra'
p445
I155
sS'fb:base.americancivilwar.regiment'
p446
I363
sS'fb:base.engineering.topic'
p447
I296
sS'fb:base.activism.activist'
p448
I210
sS'fb:music.group_member'
p449
I33
sS'fb:food.ingredient'
p450
I289
sS'fb:location.location'
p451
I9
sS'fb:government.political_district'
p452
I337
sS'fb:location.neighborhood'
p453
I166
sS'fb:base.rosetta.local_name'
p454
I450
sS'fb:base.frameline.topic'
p455
I321
sS'fb:film.film_crewmember'
p456
I121
sS'fb:location.administrative_division'
p457
I74
sS'fb:user.jg.default_domain.racehorse'
p458
I299
sS'fb:metropolitan_transit.transit_stop'
p459
I318
sS'fb:location.postal_code'
p460
I138
sS'fb:base.folklore.topic'
p461
I399
sS'fb:user.doconnor.pets.horse'
p462
I444
sS'fb:base.cinemainspector.person_sign'
p463
I428
sS'fb:common.resource'
p464
I214
sS'fb:base.type_ontology.inanimate'
p465
I5
sS'fb:theater.theatrical_composer'
p466
I466
sS'fb:base.rugby.rugby_player'
p467
I200
sS'fb:royalty.noble_person'
p468
I123
sS'fb:government.politician'
p469
I37
sS'fb:common.image'
p470
I18
sS'fb:broadcast.radio_station'
p471
I169
sS'fb:base.services.topic'
p472
I365
sS'fb:business.board_member'
p473
I128
sS'fb:base.tagit.organic_thing'
p474
I207
sS'fb:ice_hockey.hockey_player'
p475
I153
sS'fb:base.tagit.topic'
p476
I386
sS'fb:aviation.airline'
p477
I376
sS'fb:base.type_ontology.non_agent'
p478
I1
sS'fb:organization.endowed_organization'
p479
I249
sS'fb:media_common.netflix_title'
p480
I34
sS'fb:type.property'
p481
I298
sS'fb:user.sandos.common_sense.topic'
p482
I437
sS'fb:base.disneyana.topic'
p483
I479
sS'fb:education.school_district'
p484
I449
sS'fb:base.schemastaging.sports_team_extra'
p485
I240
sS'fb:location.uk_civil_parish'
p486
I209
sS'fb:base.yemebase.topic'
p487
I409
sS'fb:user.narphorium.people.topic'
p488
I72
sS'fb:organization.organization_scope'
p489
I280
sS'fb:cvg.computer_videogame'
p490
I84
sS'fb:travel.hotel'
p491
I421
sS'fb:base.catalog.cataloged_composition'
p492
I347
sS'fb:base.usnris.topic'
p493
I100
sS'fb:common.webpage'
p494
I201
sS'fb:tv.tv_series_season'
p495
I183
sS'fb:film.film_art_director'
p496
I147
sS'fb:tv.tv_program'
p497
I68
sS'fb:chemistry.chemical_compound'
p498
I230
sS'fb:people.profession'
p499
I283
sS'fb:base.disaster2.topic'
p500
I340
sS'fb:base.fashionmodels.topic'
p501
I303
s.